; Function Attrs: mustprogress uwtable
define hidden void @_ZN4cvc56parser9Smt2State22mkRealOrIntFromNumeralERKNSt7__cxx1112basic_stringIcSt11char_traitsIcESaIcEEE(ptr noalias sret(%"class.cvc5::Term") align 8 %agg.result, ptr noundef nonnull align 8 dereferenceable(512) %this, ptr noundef nonnull align 8 dereferenceable(32) %str) local_unnamed_addr #3 align 2 {
entry:
  %d_logic = getelementptr inbounds i8, ptr %this, i64 176
  %call = tail call noundef zeroext i1 @_ZNK4cvc58internal9LogicInfo15isTheoryEnabledENS0_6theory8TheoryIdE(ptr noundef nonnull align 8 dereferenceable(88) %d_logic, i32 noundef 3)
  br i1 %call, label %land.lhs.true, label %if.end

land.lhs.true:                                    ; preds = %entry
  %call3 = tail call noundef zeroext i1 @_ZNK4cvc58internal9LogicInfo15areIntegersUsedEv(ptr noundef nonnull align 8 dereferenceable(88) %d_logic)
  br i1 %call3, label %if.end, label %if.then

if.then:                                          ; preds = %land.lhs.true
  %d_solver = getelementptr inbounds i8, ptr %this, i64 8
  %0 = load ptr, ptr %d_solver, align 8
  tail call void @_ZNK4cvc56Solver6mkRealERKNSt7__cxx1112basic_stringIcSt11char_traitsIcESaIcEEE(ptr sret(%"class.cvc5::Term") align 8 %agg.result, ptr noundef nonnull align 8 dereferenceable(40) %0, ptr noundef nonnull align 8 dereferenceable(32) %str)
  br label %return

if.end:                                           ; preds = %land.lhs.true, %entry
  %d_solver4 = getelementptr inbounds i8, ptr %this, i64 8
  %1 = load ptr, ptr %d_solver4, align 8
  tail call void @_ZNK4cvc56Solver9mkIntegerERKNSt7__cxx1112basic_stringIcSt11char_traitsIcESaIcEEE(ptr sret(%"class.cvc5::Term") align 8 %agg.result, ptr noundef nonnull align 8 dereferenceable(40) %1, ptr noundef nonnull align 8 dereferenceable(32) %str)
  br label %return

return:                                           ; preds = %if.end, %if.then
  ret void
}